target datalayout = "e-m:e-p270:32:32-p271:32:32-p272:64:64-i64:64-i128:128-f80:128-n8:16:32:64-S128"
target triple = "x86_64-pc-linux-gnu"

; Function Attrs: mustprogress nounwind uwtable
define noundef i32 @_Z18coco_string_lengthPKw(ptr noundef %0) #0 {
  %2 = alloca i32, align 4
  %3 = alloca ptr, align 8
  store ptr %0, ptr %3, align 8
  %4 = load ptr, ptr %3, align 8
  %5 = icmp ne ptr %4, null
  br i1 %5, label %6, label %10

6:                                                ; preds = %1
  %7 = load ptr, ptr %3, align 8
  %8 = call i64 @wcslen(ptr noundef %7) #16
  %9 = trunc i64 %8 to i32
  store i32 %9, ptr %2, align 4
  br label %11

10:                                               ; preds = %1
  store i32 0, ptr %2, align 4
  br label %11

11:                                               ; preds = %10, %6
  %12 = load i32, ptr %2, align 4
  ret i32 %12
}

; Function Attrs: mustprogress uwtable
define noundef ptr @_Z25coco_string_create_appendPKww(ptr noundef %0, i32 noundef signext %1) #1 {
  %3 = alloca ptr, align 8
  %4 = alloca i32, align 4
  %5 = alloca i32, align 4
  %6 = alloca ptr, align 8
  store ptr %0, ptr %3, align 8
  store i32 %1, ptr %4, align 4
  %7 = load ptr, ptr %3, align 8
  %8 = call noundef i32 @_Z18coco_string_lengthPKw(ptr noundef %7)
  store i32 %8, ptr %5, align 4
  %9 = load i32, ptr %5, align 4
  %10 = add nsw i32 %9, 2
  %11 = sext i32 %10 to i64
  %12 = call { i64, i1 } @llvm.umul.with.overflow.i64(i64 %11, i64 4)
  %13 = extractvalue { i64, i1 } %12, 1
  %14 = extractvalue { i64, i1 } %12, 0
  %15 = select i1 %13, i64 -1, i64 %14
  %16 = call noalias noundef nonnull ptr @_Znam(i64 noundef %15) #14
  store ptr %16, ptr %6, align 8
  %17 = load ptr, ptr %6, align 8
  %18 = load ptr, ptr %3, align 8
  %19 = load i32, ptr %5, align 4
  %20 = sext i32 %19 to i64
  %21 = call ptr @wcsncpy(ptr noundef %17, ptr noundef %18, i64 noundef %20) #12
  %22 = load i32, ptr %4, align 4
  %23 = load ptr, ptr %6, align 8
  %24 = load i32, ptr %5, align 4
  %25 = sext i32 %24 to i64
  %26 = getelementptr inbounds i32, ptr %23, i64 %25
  store i32 %22, ptr %26, align 4
  %27 = load ptr, ptr %6, align 8
  %28 = load i32, ptr %5, align 4
  %29 = add nsw i32 %28, 1
  %30 = sext i32 %29 to i64
  %31 = getelementptr inbounds i32, ptr %27, i64 %30
  store i32 0, ptr %31, align 4
  %32 = load ptr, ptr %6, align 8
  ret ptr %32
}