; Function Attrs: mustprogress uwtable
define noundef nonnull ptr @_Z25coco_string_create_appendPKww(ptr noundef %0, i32 noundef signext %1) local_unnamed_addr #2 {
  %.not.i = icmp eq ptr %0, null
  br i1 %.not.i, label %_Z18coco_string_lengthPKw.exit.thread, label %_Z18coco_string_lengthPKw.exit

_Z18coco_string_lengthPKw.exit:                   ; preds = %2
  %3 = tail call i64 @wcslen(ptr noundef nonnull %0) #24
  %.fr13 = freeze i64 %3
  %4 = trunc i64 %.fr13 to i32
  %5 = shl i64 %.fr13, 32
  %sext = add i64 %5, 8589934592
  %6 = icmp slt i32 %4, -2
  %7 = ashr exact i64 %sext, 30
  %spec.select = select i1 %6, i64 -1, i64 %7
  %8 = ashr exact i64 %5, 32
  br label %_Z18coco_string_lengthPKw.exit.thread

_Z18coco_string_lengthPKw.exit.thread:            ; preds = %_Z18coco_string_lengthPKw.exit, %2
  %.0.i12 = phi i64 [ 0, %2 ], [ %8, %_Z18coco_string_lengthPKw.exit ]
  %9 = phi i64 [ 8, %2 ], [ %spec.select, %_Z18coco_string_lengthPKw.exit ]
  %10 = tail call noalias noundef nonnull ptr @_Znam(i64 noundef %9) #21
  %11 = tail call ptr @wcsncpy(ptr noundef nonnull %10, ptr noundef %0, i64 noundef %.0.i12) #22
  %12 = getelementptr inbounds i32, ptr %10, i64 %.0.i12
  store i32 %1, ptr %12, align 4
  %13 = getelementptr i8, ptr %12, i64 4
  store i32 0, ptr %13, align 4
  ret ptr %10
}